target datalayout = "e-m:e-p270:32:32-p271:32:32-p272:64:64-i64:64-i128:128-f80:128-n8:16:32:64-S128"
target triple = "x86_64-pc-linux-gnu"

%"class.std::__cxx11::basic_string" = type { %"struct.std::__cxx11::basic_string<char>::_Alloc_hider", i64, %union.anon }
%"struct.std::__cxx11::basic_string<char>::_Alloc_hider" = type { ptr }
%union.anon = type { i64, [8 x i8] }
%"class.Json::Value" = type { %"union.Json::Value::ValueHolder", %struct.anon, %"class.Json::Value::Comments", i64, i64 }
%"union.Json::Value::ValueHolder" = type { i64 }
%struct.anon = type { i16, [2 x i8] }
%"class.Json::Value::Comments" = type { %"class.std::unique_ptr.6" }
%"class.std::unique_ptr.6" = type { %"struct.std::__uniq_ptr_data.7" }
%"struct.std::__uniq_ptr_data.7" = type { %"class.std::__uniq_ptr_impl.8" }
%"class.std::__uniq_ptr_impl.8" = type { %"class.std::tuple.9" }
%"class.std::tuple.9" = type { %"struct.std::_Tuple_impl.10" }
%"struct.std::_Tuple_impl.10" = type { %"struct.std::_Head_base.13" }
%"struct.std::_Head_base.13" = type { ptr }
%class.cmConfigureLog = type { %"class.std::__cxx11::basic_string", %"class.std::vector", %"class.std::basic_ofstream", i32, i8, %"class.std::unique_ptr" }
%"class.std::vector" = type { %"struct.std::_Vector_base" }
%"struct.std::_Vector_base" = type { %"struct.std::_Vector_base<unsigned long, std::allocator<unsigned long>>::_Vector_impl" }
%"struct.std::_Vector_base<unsigned long, std::allocator<unsigned long>>::_Vector_impl" = type { %"struct.std::_Vector_base<unsigned long, std::allocator<unsigned long>>::_Vector_impl_data" }
%"struct.std::_Vector_base<unsigned long, std::allocator<unsigned long>>::_Vector_impl_data" = type { ptr, ptr, ptr }
%"class.std::basic_ofstream" = type { %"class.std::basic_ostream.base", %"class.std::basic_filebuf", %"class.std::basic_ios" }
%"class.std::basic_ostream.base" = type { ptr }
%"class.std::basic_filebuf" = type { %"class.std::basic_streambuf", %union.pthread_mutex_t, %"class.std::__basic_file", i32, %struct.__mbstate_t, %struct.__mbstate_t, %struct.__mbstate_t, ptr, i64, i8, i8, i8, i8, ptr, ptr, i8, ptr, ptr, i64, ptr, ptr }
%"class.std::basic_streambuf" = type { ptr, ptr, ptr, ptr, ptr, ptr, ptr, %"class.std::locale" }
%"class.std::locale" = type { ptr }
%union.pthread_mutex_t = type { %struct.__pthread_mutex_s }
%struct.__pthread_mutex_s = type { i32, i32, i32, i32, i32, i16, i16, %struct.__pthread_internal_list }
%struct.__pthread_internal_list = type { ptr, ptr }
%"class.std::__basic_file" = type <{ ptr, i8, [7 x i8] }>
%struct.__mbstate_t = type { i32, %union.anon.3 }
%union.anon.3 = type { i32 }
%"class.std::basic_ios" = type { %"class.std::ios_base", ptr, i8, i8, ptr, ptr, ptr, ptr }
%"class.std::ios_base" = type { ptr, i64, i64, i32, i32, i32, ptr, %"struct.std::ios_base::_Words", [8 x %"struct.std::ios_base::_Words"], i32, ptr, %"class.std::locale" }
%"struct.std::ios_base::_Words" = type { ptr, i64 }
%"class.std::unique_ptr" = type { %"struct.std::__uniq_ptr_data" }
%"struct.std::__uniq_ptr_data" = type { %"class.std::__uniq_ptr_impl" }
%"class.std::__uniq_ptr_impl" = type { %"class.std::tuple" }
%"class.std::tuple" = type { %"struct.std::_Tuple_impl" }
%"struct.std::_Tuple_impl" = type { %"struct.std::_Head_base.5" }
%"struct.std::_Head_base.5" = type { ptr }
%"class.std::basic_string_view" = type { i64, ptr }

@.str.9 = private unnamed_addr constant [3 x i8] c"  \00", align 1
@.str.12 = private unnamed_addr constant [3 x i8] c": \00", align 1

; Function Attrs: mustprogress nounwind uwtable
define linkonce_odr dso_local noundef nonnull align 8 dereferenceable(8) ptr @_ZNSt10_Head_baseILm0EPN4Json12StreamWriterELb0EE7_M_headERKS3_(ptr noundef nonnull align 8 dereferenceable(8) %0) #6 comdat align 2 {
  %2 = alloca ptr, align 8
  store ptr %0, ptr %2, align 8, !tbaa !164
  %3 = load ptr, ptr %2, align 8, !tbaa !164
  %4 = getelementptr inbounds nuw %"struct.std::_Head_base.5", ptr %3, i32 0, i32 0
  ret ptr %4
}

; Function Attrs: mustprogress nounwind uwtable
define linkonce_odr dso_local noundef nonnull align 8 dereferenceable(8) ptr @_ZNSt11_Tuple_implILm0EJPN4Json12StreamWriterESt14default_deleteIS1_EEE7_M_headERKS5_(ptr noundef nonnull align 8 dereferenceable(8) %0) #6 comdat align 2 {
  %2 = alloca ptr, align 8
  store ptr %0, ptr %2, align 8, !tbaa !160
  %3 = load ptr, ptr %2, align 8, !tbaa !160
  %4 = call noundef nonnull align 8 dereferenceable(8) ptr @_ZNSt10_Head_baseILm0EPN4Json12StreamWriterELb0EE7_M_headERKS3_(ptr noundef nonnull align 8 dereferenceable(8) %3) #3
  ret ptr %4
}

; Function Attrs: mustprogress nounwind uwtable
define linkonce_odr dso_local noundef nonnull align 8 dereferenceable(8) ptr @_ZSt12__get_helperILm0EPN4Json12StreamWriterEJSt14default_deleteIS1_EEERKT0_RKSt11_Tuple_implIXT_EJS5_DpT1_EE(ptr noundef nonnull align 8 dereferenceable(8) %0) #6 comdat {
  %2 = alloca ptr, align 8
  store ptr %0, ptr %2, align 8, !tbaa !160
  %3 = load ptr, ptr %2, align 8, !tbaa !160
  %4 = call noundef nonnull align 8 dereferenceable(8) ptr @_ZNSt11_Tuple_implILm0EJPN4Json12StreamWriterESt14default_deleteIS1_EEE7_M_headERKS5_(ptr noundef nonnull align 8 dereferenceable(8) %3) #3
  ret ptr %4
}

; Function Attrs: mustprogress nounwind uwtable
define linkonce_odr dso_local noundef nonnull align 8 dereferenceable(8) ptr @_ZSt3getILm0EJPN4Json12StreamWriterESt14default_deleteIS1_EEERKNSt13tuple_elementIXT_ESt5tupleIJDpT0_EEE4typeERKS9_(ptr noundef nonnull align 8 dereferenceable(8) %0) #6 comdat {
  %2 = alloca ptr, align 8
  store ptr %0, ptr %2, align 8, !tbaa !158
  %3 = load ptr, ptr %2, align 8, !tbaa !158
  %4 = call noundef nonnull align 8 dereferenceable(8) ptr @_ZSt12__get_helperILm0EPN4Json12StreamWriterEJSt14default_deleteIS1_EEERKT0_RKSt11_Tuple_implIXT_EJS5_DpT1_EE(ptr noundef nonnull align 8 dereferenceable(8) %3) #3
  ret ptr %4
}

; Function Attrs: mustprogress nounwind uwtable
define linkonce_odr dso_local noundef ptr @_ZNKSt15__uniq_ptr_implIN4Json12StreamWriterESt14default_deleteIS1_EE6_M_ptrEv(ptr noundef nonnull align 8 dereferenceable(8) %0) #6 comdat align 2 {
  %2 = alloca ptr, align 8
  store ptr %0, ptr %2, align 8, !tbaa !156
  %3 = load ptr, ptr %2, align 8
  %4 = getelementptr inbounds nuw %"class.std::__uniq_ptr_impl", ptr %3, i32 0, i32 0
  %5 = call noundef nonnull align 8 dereferenceable(8) ptr @_ZSt3getILm0EJPN4Json12StreamWriterESt14default_deleteIS1_EEERKNSt13tuple_elementIXT_ESt5tupleIJDpT0_EEE4typeERKS9_(ptr noundef nonnull align 8 dereferenceable(8) %4) #3
  %6 = load ptr, ptr %5, align 8, !tbaa !65
  ret ptr %6
}

; Function Attrs: inlinehint mustprogress nounwind uwtable
define linkonce_odr dso_local noundef i32 @_ZStorSt12_Ios_IostateS_(i32 noundef %0, i32 noundef %1) #9 comdat {
  %3 = alloca i32, align 4
  %4 = alloca i32, align 4
  store i32 %0, ptr %3, align 4, !tbaa !289
  store i32 %1, ptr %4, align 4, !tbaa !289
  %5 = load i32, ptr %3, align 4, !tbaa !289
  %6 = load i32, ptr %4, align 4, !tbaa !289
  %7 = or i32 %5, %6
  ret i32 %7
}

; Function Attrs: mustprogress nounwind uwtable
define available_externally noundef i32 @_ZNKSt9basic_iosIcSt11char_traitsIcEE7rdstateEv(ptr noundef nonnull align 8 dereferenceable(264) %0) #6 align 2 {
  %2 = alloca ptr, align 8
  store ptr %0, ptr %2, align 8, !tbaa !252
  %3 = load ptr, ptr %2, align 8
  %4 = getelementptr inbounds nuw %"class.std::ios_base", ptr %3, i32 0, i32 5
  %5 = load i32, ptr %4, align 8, !tbaa !290
  ret i32 %5
}

; Function Attrs: mustprogress uwtable
define available_externally noundef nonnull align 8 dereferenceable(8) ptr @_ZNSolsEPFRSoS_E(ptr noundef nonnull align 8 dereferenceable(8) %0, ptr noundef %1) #5 align 2 {
  %3 = alloca ptr, align 8
  %4 = alloca ptr, align 8
  store ptr %0, ptr %3, align 8, !tbaa !71
  store ptr %1, ptr %4, align 8, !tbaa !16
  %5 = load ptr, ptr %3, align 8
  %6 = load ptr, ptr %4, align 8, !tbaa !16
  %7 = call noundef nonnull align 8 dereferenceable(8) ptr %6(ptr noundef nonnull align 8 dereferenceable(8) %5)
  ret ptr %7
}

; Function Attrs: mustprogress nounwind uwtable
define linkonce_odr dso_local noundef ptr @_ZNKSt10unique_ptrIN4Json12StreamWriterESt14default_deleteIS1_EE3getEv(ptr noundef nonnull align 8 dereferenceable(8) %0) #6 comdat align 2 {
  %2 = alloca ptr, align 8
  store ptr %0, ptr %2, align 8, !tbaa !60
  %3 = load ptr, ptr %2, align 8
  %4 = getelementptr inbounds nuw %"class.std::unique_ptr", ptr %3, i32 0, i32 0
  %5 = call noundef ptr @_ZNKSt15__uniq_ptr_implIN4Json12StreamWriterESt14default_deleteIS1_EE6_M_ptrEv(ptr noundef nonnull align 8 dereferenceable(8) %4) #3
  ret ptr %5
}

; Function Attrs: mustprogress nounwind uwtable
define linkonce_odr dso_local noundef i64 @_ZNSt11char_traitsIcE6lengthEPKc(ptr noundef %0) #6 comdat align 2 {
  %2 = alloca ptr, align 8
  store ptr %0, ptr %2, align 8, !tbaa !73
  %3 = load ptr, ptr %2, align 8, !tbaa !73
  %4 = call i64 @strlen(ptr noundef %3) #3
  ret i64 %4
}

; Function Attrs: mustprogress uwtable
define available_externally void @_ZNSt9basic_iosIcSt11char_traitsIcEE8setstateESt12_Ios_Iostate(ptr noundef nonnull align 8 dereferenceable(264) %0, i32 noundef %1) #5 align 2 {
  %3 = alloca ptr, align 8
  %4 = alloca i32, align 4
  store ptr %0, ptr %3, align 8, !tbaa !252
  store i32 %1, ptr %4, align 4, !tbaa !289
  %5 = load ptr, ptr %3, align 8
  %6 = call noundef i32 @_ZNKSt9basic_iosIcSt11char_traitsIcEE7rdstateEv(ptr noundef nonnull align 8 dereferenceable(264) %5)
  %7 = load i32, ptr %4, align 4, !tbaa !289
  %8 = call noundef i32 @_ZStorSt12_Ios_IostateS_(i32 noundef %6, i32 noundef %7)
  call void @_ZNSt9basic_iosIcSt11char_traitsIcEE5clearESt12_Ios_Iostate(ptr noundef nonnull align 8 dereferenceable(264) %5, i32 noundef %8)
  ret void
}

; Function Attrs: mustprogress nounwind uwtable
define linkonce_odr dso_local noundef i64 @_ZNKSt17basic_string_viewIcSt11char_traitsIcEE4sizeEv(ptr noundef nonnull align 8 dereferenceable(16) %0) #6 comdat align 2 {
  %2 = alloca ptr, align 8
  store ptr %0, ptr %2, align 8, !tbaa !139
  %3 = load ptr, ptr %2, align 8
  %4 = getelementptr inbounds nuw %"class.std::basic_string_view", ptr %3, i32 0, i32 0
  %5 = load i64, ptr %4, align 8, !tbaa !141
  ret i64 %5
}

; Function Attrs: mustprogress nounwind uwtable
define linkonce_odr dso_local noundef ptr @_ZNKSt17basic_string_viewIcSt11char_traitsIcEE4dataEv(ptr noundef nonnull align 8 dereferenceable(16) %0) #6 comdat align 2 {
  %2 = alloca ptr, align 8
  store ptr %0, ptr %2, align 8, !tbaa !139
  %3 = load ptr, ptr %2, align 8
  %4 = getelementptr inbounds nuw %"class.std::basic_string_view", ptr %3, i32 0, i32 1
  %5 = load ptr, ptr %4, align 8, !tbaa !143
  ret ptr %5
}

; Function Attrs: mustprogress uwtable
define dso_local void @_ZN14cmConfigureLog7EndLineEv(ptr noundef nonnull align 8 dereferenceable(584) %0) #5 align 2 {
  %2 = alloca ptr, align 8
  store ptr %0, ptr %2, align 8, !tbaa !20
  %3 = load ptr, ptr %2, align 8
  %4 = getelementptr inbounds nuw %class.cmConfigureLog, ptr %3, i32 0, i32 2
  %5 = call noundef nonnull align 8 dereferenceable(8) ptr @_ZNSolsEPFRSoS_E(ptr noundef nonnull align 8 dereferenceable(8) %4, ptr noundef @_ZSt4endlIcSt11char_traitsIcEERSt13basic_ostreamIT_T0_ES6_)
  ret void
}

; Function Attrs: mustprogress nounwind uwtable
define linkonce_odr dso_local noundef ptr @_ZNKSt10unique_ptrIN4Json12StreamWriterESt14default_deleteIS1_EEptEv(ptr noundef nonnull align 8 dereferenceable(8) %0) #6 comdat align 2 {
  %2 = alloca ptr, align 8
  store ptr %0, ptr %2, align 8, !tbaa !60
  %3 = load ptr, ptr %2, align 8
  %4 = call noundef ptr @_ZNKSt10unique_ptrIN4Json12StreamWriterESt14default_deleteIS1_EE3getEv(ptr noundef nonnull align 8 dereferenceable(8) %3) #3
  ret ptr %4
}

; Function Attrs: inlinehint mustprogress uwtable
define available_externally noundef nonnull align 8 dereferenceable(8) ptr @_ZStlsISt11char_traitsIcEERSt13basic_ostreamIcT_ES5_PKc(ptr noundef nonnull align 8 dereferenceable(8) %0, ptr noundef %1) #8 {
  %3 = alloca ptr, align 8
  %4 = alloca ptr, align 8
  store ptr %0, ptr %3, align 8, !tbaa !71
  store ptr %1, ptr %4, align 8, !tbaa !73
  %5 = load ptr, ptr %4, align 8, !tbaa !73
  %6 = icmp ne ptr %5, null
  br i1 %6, label %13, label %7

7:                                                ; preds = %2
  %8 = load ptr, ptr %3, align 8, !tbaa !71
  %9 = load ptr, ptr %8, align 8, !tbaa !58
  %10 = getelementptr i8, ptr %9, i64 -24
  %11 = load i64, ptr %10, align 8
  %12 = getelementptr inbounds i8, ptr %8, i64 %11
  call void @_ZNSt9basic_iosIcSt11char_traitsIcEE8setstateESt12_Ios_Iostate(ptr noundef nonnull align 8 dereferenceable(264) %12, i32 noundef 1)
  br label %19

13:                                               ; preds = %2
  %14 = load ptr, ptr %3, align 8, !tbaa !71
  %15 = load ptr, ptr %4, align 8, !tbaa !73
  %16 = load ptr, ptr %4, align 8, !tbaa !73
  %17 = call noundef i64 @_ZNSt11char_traitsIcE6lengthEPKc(ptr noundef %16)
  %18 = call noundef nonnull align 8 dereferenceable(8) ptr @_ZSt16__ostream_insertIcSt11char_traitsIcEERSt13basic_ostreamIT_T0_ES6_PKS3_l(ptr noundef nonnull align 8 dereferenceable(8) %14, ptr noundef %15, i64 noundef %17)
  br label %19

19:                                               ; preds = %13, %7
  %20 = load ptr, ptr %3, align 8, !tbaa !71
  ret ptr %20
}

; Function Attrs: inlinehint mustprogress uwtable
define linkonce_odr dso_local noundef nonnull align 8 dereferenceable(8) ptr @_ZStlsIcSt11char_traitsIcEERSt13basic_ostreamIT_T0_ES6_St17basic_string_viewIS3_S4_E(ptr noundef nonnull align 8 dereferenceable(8) %0, i64 %1, ptr %2) #8 comdat {
  %4 = alloca %"class.std::basic_string_view", align 8
  %5 = alloca ptr, align 8
  %6 = getelementptr inbounds nuw { i64, ptr }, ptr %4, i32 0, i32 0
  store i64 %1, ptr %6, align 8
  %7 = getelementptr inbounds nuw { i64, ptr }, ptr %4, i32 0, i32 1
  store ptr %2, ptr %7, align 8
  store ptr %0, ptr %5, align 8, !tbaa !71
  %8 = load ptr, ptr %5, align 8, !tbaa !71
  %9 = call noundef ptr @_ZNKSt17basic_string_viewIcSt11char_traitsIcEE4dataEv(ptr noundef nonnull align 8 dereferenceable(16) %4) #3
  %10 = call noundef i64 @_ZNKSt17basic_string_viewIcSt11char_traitsIcEE4sizeEv(ptr noundef nonnull align 8 dereferenceable(16) %4) #3
  %11 = call noundef nonnull align 8 dereferenceable(8) ptr @_ZSt16__ostream_insertIcSt11char_traitsIcEERSt13basic_ostreamIT_T0_ES6_PKS3_l(ptr noundef nonnull align 8 dereferenceable(8) %8, ptr noundef %9, i64 noundef %10)
  ret ptr %11
}

; Function Attrs: mustprogress uwtable
define dso_local noundef nonnull align 8 dereferenceable(248) ptr @_ZN14cmConfigureLog9BeginLineEv(ptr noundef nonnull align 8 dereferenceable(584) %0) #5 align 2 {
  %2 = alloca ptr, align 8
  %3 = alloca i32, align 4
  store ptr %0, ptr %2, align 8, !tbaa !20
  %4 = load ptr, ptr %2, align 8
  call void @llvm.lifetime.start.p0(i64 4, ptr %3) #3
  store i32 0, ptr %3, align 4, !tbaa !112
  br label %5

5:                                                ; preds = %14, %1
  %6 = load i32, ptr %3, align 4, !tbaa !112
  %7 = getelementptr inbounds nuw %class.cmConfigureLog, ptr %4, i32 0, i32 3
  %8 = load i32, ptr %7, align 8, !tbaa !24
  %9 = icmp ult i32 %6, %8
  br i1 %9, label %11, label %10

10:                                               ; preds = %5
  call void @llvm.lifetime.end.p0(i64 4, ptr %3) #3
  br label %17

11:                                               ; preds = %5
  %12 = getelementptr inbounds nuw %class.cmConfigureLog, ptr %4, i32 0, i32 2
  %13 = call noundef nonnull align 8 dereferenceable(8) ptr @_ZStlsISt11char_traitsIcEERSt13basic_ostreamIcT_ES5_PKc(ptr noundef nonnull align 8 dereferenceable(8) %12, ptr noundef @.str.9)
  br label %14

14:                                               ; preds = %11
  %15 = load i32, ptr %3, align 4, !tbaa !112
  %16 = add i32 %15, 1
  store i32 %16, ptr %3, align 4, !tbaa !112
  br label %5, !llvm.loop !113

17:                                               ; preds = %10
  %18 = getelementptr inbounds nuw %class.cmConfigureLog, ptr %4, i32 0, i32 2
  ret ptr %18
}

; Function Attrs: mustprogress uwtable
define dso_local void @_ZN14cmConfigureLog10WriteValueESt17basic_string_viewIcSt11char_traitsIcEERKNSt7__cxx1112basic_stringIcS2_SaIcEEE(ptr noundef nonnull align 8 dereferenceable(584) %0, i64 %1, ptr %2, ptr noundef nonnull align 8 dereferenceable(32) %3) #5 align 2 personality ptr @__gxx_personality_v0 {
  %5 = alloca %"class.std::basic_string_view", align 8
  %6 = alloca ptr, align 8
  %7 = alloca ptr, align 8
  %8 = alloca %"class.std::basic_string_view", align 8
  %9 = alloca %"class.Json::Value", align 8
  %10 = alloca ptr, align 8
  %11 = alloca i32, align 4
  %12 = getelementptr inbounds nuw { i64, ptr }, ptr %5, i32 0, i32 0
  store i64 %1, ptr %12, align 8
  %13 = getelementptr inbounds nuw { i64, ptr }, ptr %5, i32 0, i32 1
  store ptr %2, ptr %13, align 8
  store ptr %0, ptr %6, align 8, !tbaa !20
  store ptr %3, ptr %7, align 8, !tbaa !18
  %14 = load ptr, ptr %6, align 8
  %15 = call noundef nonnull align 8 dereferenceable(248) ptr @_ZN14cmConfigureLog9BeginLineEv(ptr noundef nonnull align 8 dereferenceable(584) %14)
  call void @llvm.memcpy.p0.p0.i64(ptr align 8 %8, ptr align 8 %5, i64 16, i1 false), !tbaa.struct !90
  %16 = getelementptr inbounds nuw { i64, ptr }, ptr %8, i32 0, i32 0
  %17 = load i64, ptr %16, align 8
  %18 = getelementptr inbounds nuw { i64, ptr }, ptr %8, i32 0, i32 1
  %19 = load ptr, ptr %18, align 8
  %20 = call noundef nonnull align 8 dereferenceable(8) ptr @_ZStlsIcSt11char_traitsIcEERSt13basic_ostreamIT_T0_ES6_St17basic_string_viewIS3_S4_E(ptr noundef nonnull align 8 dereferenceable(8) %15, i64 %17, ptr %19)
  %21 = call noundef nonnull align 8 dereferenceable(8) ptr @_ZStlsISt11char_traitsIcEERSt13basic_ostreamIcT_ES5_PKc(ptr noundef nonnull align 8 dereferenceable(8) %20, ptr noundef @.str.12)
  %22 = getelementptr inbounds nuw %class.cmConfigureLog, ptr %14, i32 0, i32 5
  %23 = call noundef ptr @_ZNKSt10unique_ptrIN4Json12StreamWriterESt14default_deleteIS1_EEptEv(ptr noundef nonnull align 8 dereferenceable(8) %22) #3
  call void @llvm.lifetime.start.p0(i64 40, ptr %9) #3
  %24 = load ptr, ptr %7, align 8, !tbaa !18
  call void @_ZN4Json5ValueC1ERKNSt7__cxx1112basic_stringIcSt11char_traitsIcESaIcEEE(ptr noundef nonnull align 8 dereferenceable(40) %9, ptr noundef nonnull align 8 dereferenceable(32) %24)
  %25 = getelementptr inbounds nuw %class.cmConfigureLog, ptr %14, i32 0, i32 2
  %26 = load ptr, ptr %23, align 8, !tbaa !58
  %27 = getelementptr inbounds ptr, ptr %26, i64 2
  %28 = load ptr, ptr %27, align 8
  %29 = invoke noundef i32 %28(ptr noundef nonnull align 8 dereferenceable(16) %23, ptr noundef nonnull align 8 dereferenceable(40) %9, ptr noundef %25)
          to label %30 unwind label %31

30:                                               ; preds = %4
  call void @_ZN4Json5ValueD1Ev(ptr noundef nonnull align 8 dereferenceable(40) %9) #3
  call void @llvm.lifetime.end.p0(i64 40, ptr %9) #3
  call void @_ZN14cmConfigureLog7EndLineEv(ptr noundef nonnull align 8 dereferenceable(584) %14)
  ret void

31:                                               ; preds = %4
  %32 = landingpad { ptr, i32 }
          cleanup
  %33 = extractvalue { ptr, i32 } %32, 0
  store ptr %33, ptr %10, align 8
  %34 = extractvalue { ptr, i32 } %32, 1
  store i32 %34, ptr %11, align 4
  call void @_ZN4Json5ValueD1Ev(ptr noundef nonnull align 8 dereferenceable(40) %9) #3
  call void @llvm.lifetime.end.p0(i64 40, ptr %9) #3
  br label %35

35:                                               ; preds = %31
  %36 = load ptr, ptr %10, align 8
  %37 = load i32, ptr %11, align 4
  %38 = insertvalue { ptr, i32 } poison, ptr %36, 0
  %39 = insertvalue { ptr, i32 } %38, i32 %37, 1
  resume { ptr, i32 } %39
}