; Function Attrs: mustprogress uwtable
define dso_local void @_ZN14cmConfigureLog10WriteValueESt17basic_string_viewIcSt11char_traitsIcEERKNSt7__cxx1112basic_stringIcS2_SaIcEEE(ptr noundef nonnull align 8 dereferenceable(584) %0, i64 %1, ptr %2, ptr noundef nonnull align 8 dereferenceable(32) %3) local_unnamed_addr #5 align 2 personality ptr @__gxx_personality_v0 {
  %5 = alloca %"class.Json::Value", align 8
  %6 = getelementptr inbounds nuw i8, ptr %0, i64 568
  %7 = load i32, ptr %6, align 8, !tbaa !20
  %.not.i = icmp eq i32 %7, 0
  br i1 %.not.i, label %_ZN14cmConfigureLog9BeginLineEv.exit, label %.lr.ph.i

.lr.ph.i:                                         ; preds = %4
  %8 = getelementptr inbounds nuw i8, ptr %0, i64 56
  br label %9

9:                                                ; preds = %9, %.lr.ph.i
  %.02.i = phi i32 [ 0, %.lr.ph.i ], [ %11, %9 ]
  %10 = tail call noundef nonnull align 8 dereferenceable(8) ptr @_ZSt16__ostream_insertIcSt11char_traitsIcEERSt13basic_ostreamIT_T0_ES6_PKS3_l(ptr noundef nonnull align 8 dereferenceable(8) %8, ptr noundef nonnull @.str.9, i64 noundef 2)
  %11 = add nuw i32 %.02.i, 1
  %12 = load i32, ptr %6, align 8, !tbaa !20
  %13 = icmp ult i32 %11, %12
  br i1 %13, label %9, label %_ZN14cmConfigureLog9BeginLineEv.exit, !llvm.loop !94

_ZN14cmConfigureLog9BeginLineEv.exit:             ; preds = %9, %4
  %14 = getelementptr inbounds nuw i8, ptr %0, i64 56
  %15 = tail call noundef nonnull align 8 dereferenceable(8) ptr @_ZSt16__ostream_insertIcSt11char_traitsIcEERSt13basic_ostreamIT_T0_ES6_PKS3_l(ptr noundef nonnull align 8 dereferenceable(8) %14, ptr noundef %2, i64 noundef %1)
  %16 = tail call noundef nonnull align 8 dereferenceable(8) ptr @_ZSt16__ostream_insertIcSt11char_traitsIcEERSt13basic_ostreamIT_T0_ES6_PKS3_l(ptr noundef nonnull align 8 dereferenceable(8) %15, ptr noundef nonnull @.str.12, i64 noundef 2)
  %17 = getelementptr inbounds nuw i8, ptr %0, i64 576
  %18 = load ptr, ptr %17, align 8, !tbaa !51
  call void @llvm.lifetime.start.p0(i64 40, ptr nonnull %5) #27
  call void @_ZN4Json5ValueC1ERKNSt7__cxx1112basic_stringIcSt11char_traitsIcESaIcEEE(ptr noundef nonnull align 8 dereferenceable(40) %5, ptr noundef nonnull align 8 dereferenceable(32) %3)
  %19 = load ptr, ptr %18, align 8, !tbaa !52
  %20 = getelementptr inbounds nuw i8, ptr %19, i64 16
  %21 = load ptr, ptr %20, align 8
  %22 = invoke noundef i32 %21(ptr noundef nonnull align 8 dereferenceable(16) %18, ptr noundef nonnull align 8 dereferenceable(40) %5, ptr noundef nonnull %14)
          to label %23 unwind label %43

23:                                               ; preds = %_ZN14cmConfigureLog9BeginLineEv.exit
  call void @_ZN4Json5ValueD1Ev(ptr noundef nonnull align 8 dereferenceable(40) %5) #27
  call void @llvm.lifetime.end.p0(i64 40, ptr nonnull %5) #27
  %24 = load ptr, ptr %14, align 8, !tbaa !52
  %25 = getelementptr i8, ptr %24, i64 -24
  %26 = load i64, ptr %25, align 8
  %27 = getelementptr inbounds i8, ptr %14, i64 %26
  %28 = getelementptr inbounds nuw i8, ptr %27, i64 240
  %29 = load ptr, ptr %28, align 8, !tbaa !95
  %.not.i.i.i.i = icmp eq ptr %29, null
  br i1 %.not.i.i.i.i, label %30, label %_ZSt13__check_facetISt5ctypeIcEERKT_PS3_.exit.i.i.i

30:                                               ; preds = %23
  call void @_ZSt16__throw_bad_castv() #24
  unreachable

_ZSt13__check_facetISt5ctypeIcEERKT_PS3_.exit.i.i.i: ; preds = %23
  %31 = getelementptr inbounds nuw i8, ptr %29, i64 56
  %32 = load i8, ptr %31, align 8, !tbaa !108
  %.not.i1.i.i.i = icmp eq i8 %32, 0
  br i1 %.not.i1.i.i.i, label %36, label %33

33:                                               ; preds = %_ZSt13__check_facetISt5ctypeIcEERKT_PS3_.exit.i.i.i
  %34 = getelementptr inbounds nuw i8, ptr %29, i64 67
  %35 = load i8, ptr %34, align 1, !tbaa !14
  br label %_ZN14cmConfigureLog7EndLineEv.exit

36:                                               ; preds = %_ZSt13__check_facetISt5ctypeIcEERKT_PS3_.exit.i.i.i
  call void @_ZNKSt5ctypeIcE13_M_widen_initEv(ptr noundef nonnull align 8 dereferenceable(570) %29)
  %37 = load ptr, ptr %29, align 8, !tbaa !52
  %38 = getelementptr inbounds nuw i8, ptr %37, i64 48
  %39 = load ptr, ptr %38, align 8
  %40 = call noundef signext i8 %39(ptr noundef nonnull align 8 dereferenceable(570) %29, i8 noundef signext 10)
  br label %_ZN14cmConfigureLog7EndLineEv.exit

_ZN14cmConfigureLog7EndLineEv.exit:               ; preds = %33, %36
  %.0.i.i.i.i = phi i8 [ %35, %33 ], [ %40, %36 ]
  %41 = call noundef nonnull align 8 dereferenceable(8) ptr @_ZNSo3putEc(ptr noundef nonnull align 8 dereferenceable(8) %14, i8 noundef signext %.0.i.i.i.i)
  %42 = call noundef nonnull align 8 dereferenceable(8) ptr @_ZNSo5flushEv(ptr noundef nonnull align 8 dereferenceable(8) %41)
  ret void

43:                                               ; preds = %_ZN14cmConfigureLog9BeginLineEv.exit
  %44 = landingpad { ptr, i32 }
          cleanup
  call void @_ZN4Json5ValueD1Ev(ptr noundef nonnull align 8 dereferenceable(40) %5) #27
  call void @llvm.lifetime.end.p0(i64 40, ptr nonnull %5) #27
  resume { ptr, i32 } %44
}